; Function Attrs: mustprogress uwtable
define noundef zeroext i1 @_ZN12colvarmodule13memory_stream20expand_output_bufferEm(ptr noundef nonnull align 8 dereferenceable(72) %0, i64 noundef %1) local_unnamed_addr #0 align 2 {
  %3 = load ptr, ptr %0, align 8, !tbaa !4
  %.not = icmp eq ptr %3, null
  %4 = getelementptr inbounds nuw i8, ptr %0, i64 16
  %5 = select i1 %.not, ptr %4, ptr %3
  %6 = getelementptr inbounds nuw i8, ptr %5, i64 8
  %7 = load ptr, ptr %6, align 8, !tbaa !17
  %8 = load ptr, ptr %5, align 8, !tbaa !18
  %9 = ptrtoint ptr %7 to i64
  %10 = ptrtoint ptr %8 to i64
  %11 = sub i64 %9, %10
  %12 = add i64 %11, %1
  %13 = getelementptr inbounds nuw i8, ptr %0, i64 48
  %14 = load i64, ptr %13, align 8, !tbaa !19
  %.not5 = icmp ugt i64 %12, %14
  br i1 %.not5, label %17, label %15

15:                                               ; preds = %2
  tail call void @_ZNSt6vectorIhSaIhEE6resizeEm(ptr noundef nonnull align 8 dereferenceable(24) %5, i64 noundef %12)
  %.phi.trans.insert = getelementptr inbounds nuw i8, ptr %0, i64 56
  %.pre = load i32, ptr %.phi.trans.insert, align 8, !tbaa !20
  %16 = icmp eq i32 %.pre, 0
  br label %21

17:                                               ; preds = %2
  %18 = getelementptr inbounds nuw i8, ptr %0, i64 56
  %19 = load i32, ptr %18, align 8, !tbaa !21
  %20 = or i32 %19, 1
  store i32 %20, ptr %18, align 8, !tbaa !21
  br label %21

21:                                               ; preds = %17, %15
  %22 = phi i1 [ false, %17 ], [ %16, %15 ]
  ret i1 %22
}